target datalayout = "e-m:e-p270:32:32-p271:32:32-p272:64:64-i64:64-i128:128-f80:128-n8:16:32:64-S128"
target triple = "x86_64-pc-linux-gnu"

%class.InterpreterOopMap = type { ptr, i32, i32, i16, i32, [4 x i64] }

; Function Attrs: mustprogress nounwind uwtable
define hidden void @_ZN17InterpreterOopMap10initializeEv(ptr noundef nonnull align 8 dereferenceable(56) %0) #1 align 2 {
  %2 = alloca ptr, align 8
  %3 = alloca i32, align 4
  store ptr %0, ptr %2, align 8
  %4 = load ptr, ptr %2, align 8
  %5 = getelementptr inbounds %class.InterpreterOopMap, ptr %4, i32 0, i32 0
  store ptr null, ptr %5, align 8
  %6 = getelementptr inbounds %class.InterpreterOopMap, ptr %4, i32 0, i32 1
  store i32 65535, ptr %6, align 8
  %7 = getelementptr inbounds %class.InterpreterOopMap, ptr %4, i32 0, i32 3
  store i16 0, ptr %7, align 8
  %8 = getelementptr inbounds %class.InterpreterOopMap, ptr %4, i32 0, i32 2
  store i32 0, ptr %8, align 4
  %9 = getelementptr inbounds %class.InterpreterOopMap, ptr %4, i32 0, i32 4
  store i32 0, ptr %9, align 4
  store i32 0, ptr %3, align 4
  br label %10

10:                                               ; preds = %18, %1
  %11 = load i32, ptr %3, align 4
  %12 = icmp slt i32 %11, 4
  br i1 %12, label %13, label %21

13:                                               ; preds = %10
  %14 = getelementptr inbounds %class.InterpreterOopMap, ptr %4, i32 0, i32 5
  %15 = load i32, ptr %3, align 4
  %16 = sext i32 %15 to i64
  %17 = getelementptr inbounds [4 x i64], ptr %14, i64 0, i64 %16
  store i64 0, ptr %17, align 8
  br label %18

18:                                               ; preds = %13
  %19 = load i32, ptr %3, align 4
  %20 = add nsw i32 %19, 1
  store i32 %20, ptr %3, align 4
  br label %10, !llvm.loop !8

21:                                               ; preds = %10
  ret void
}

; Function Attrs: mustprogress nounwind uwtable
define hidden void @_ZN17InterpreterOopMapC2Ev(ptr noundef nonnull align 8 dereferenceable(56) %0) unnamed_addr #1 align 2 {
  %2 = alloca ptr, align 8
  store ptr %0, ptr %2, align 8
  %3 = load ptr, ptr %2, align 8
  call void @_ZN17InterpreterOopMap10initializeEv(ptr noundef nonnull align 8 dereferenceable(56) %3)
  ret void
}