; Function Attrs: mustprogress nofree norecurse nosync nounwind willreturn memory(argmem: write) uwtable
define hidden void @_ZN17InterpreterOopMapC2Ev(ptr nocapture noundef nonnull writeonly align 8 dereferenceable(56) %0) unnamed_addr #5 align 2 {
  store ptr null, ptr %0, align 8
  %2 = getelementptr inbounds i8, ptr %0, i64 8
  store i32 65535, ptr %2, align 8
  %3 = getelementptr inbounds i8, ptr %0, i64 16
  store i16 0, ptr %3, align 8
  %4 = getelementptr inbounds i8, ptr %0, i64 12
  store i32 0, ptr %4, align 4
  %5 = getelementptr inbounds i8, ptr %0, i64 20
  tail call void @llvm.memset.p0.i64(ptr noundef nonnull align 4 dereferenceable(36) %5, i8 0, i64 36, i1 false)
  ret void
}